Certificate:
    Data:
        Version: 3 (0x2)
        Serial Number: 1 (0x1)
        Signature Algorithm: sha256WithRSAEncryption
        Issuer: CN=ca.localdomain, C=FR, ST=BdR, L=Aix, O=fD, OU=Tests
        Validity
            Not Before: Sep  2 12:10:16 2019 GMT
            Not After : Sep  1 12:10:16 2020 GMT
        Subject: C=FR, ST=BdR, O=fD, OU=Tests, CN=mme.localdomain
        Subject Public Key Info:
            Public Key Algorithm: rsaEncryption
                RSA Public-Key: (1024 bit)
                Modulus:
                    00:c9:b1:bf:1e:0c:c1:6e:13:5f:5b:0a:39:f4:46:
                    10:f6:87:70:b9:4a:34:63:01:fc:12:cb:eb:94:df:
                    bd:24:9e:47:58:8b:90:a7:97:3a:91:cf:51:11:f6:
                    d2:37:ce:b9:98:d0:c6:11:9d:41:a1:6b:31:13:29:
                    dc:58:4e:24:a9:6a:5d:74:76:20:e9:cb:b1:22:f9:
                    e5:9a:89:6f:3f:0b:c2:31:ae:9f:4b:79:2f:d6:c4:
                    42:1c:5b:15:6d:d8:9c:61:49:8c:14:40:cc:88:0e:
                    f7:1e:24:97:65:2d:5d:1f:fb:7d:5f:b1:19:95:3b:
                    08:a7:e8:98:06:14:30:0c:c5
                Exponent: 65537 (0x10001)
        X509v3 extensions:
            X509v3 Basic Constraints: 
                CA:FALSE
            Netscape Comment: 
                OpenSSL Generated Certificate
            X509v3 Subject Key Identifier: 
                BD:1E:A7:62:7F:A7:ED:01:2C:CF:B7:B8:31:10:BD:73:FC:AA:8D:50
            X509v3 Authority Key Identifier: 
                keyid:E8:D3:89:BA:7B:C0:17:0A:CA:F6:15:AB:20:0F:FE:E0:78:42:8C:33

    Signature Algorithm: sha256WithRSAEncryption
         02:87:6c:ba:bf:4c:d2:a5:1a:de:84:07:fe:1e:56:0b:cd:8b:
         6c:73:c9:22:5b:bc:97:55:72:3d:66:89:3a:49:5d:62:c2:71:
         4f:f2:51:42:3c:2c:8a:31:8d:90:43:56:d0:12:db:d1:ce:1c:
         55:60:ee:85:8f:7b:a8:1e:b1:bf:59:65:a1:d8:a4:7d:34:d9:
         95:d3:62:96:59:d2:06:8d:84:73:8a:d9:9a:7a:52:fa:f5:7f:
         7e:41:5e:7c:9e:08:fd:58:ac:b9:f4:42:46:be:3f:2b:df:57:
         84:ad:38:50:e8:34:95:71:31:6a:70:15:f1:02:27:57:57:45:
         1c:e7
-----BEGIN CERTIFICATE-----
MIICojCCAgugAwIBAgIBATANBgkqhkiG9w0BAQsFADBfMRcwFQYDVQQDDA5jYS5s
b2NhbGRvbWFpbjELMAkGA1UEBhMCRlIxDDAKBgNVBAgMA0JkUjEMMAoGA1UEBwwD
QWl4MQswCQYDVQQKDAJmRDEOMAwGA1UECwwFVGVzdHMwHhcNMTkwOTAyMTIxMDE2
WhcNMjAwOTAxMTIxMDE2WjBSMQswCQYDVQQGEwJGUjEMMAoGA1UECAwDQmRSMQsw
CQYDVQQKDAJmRDEOMAwGA1UECwwFVGVzdHMxGDAWBgNVBAMMD21tZS5sb2NhbGRv
bWFpbjCBnzANBgkqhkiG9w0BAQEFAAOBjQAwgYkCgYEAybG/HgzBbhNfWwo59EYQ
9odwuUo0YwH8EsvrlN+9JJ5HWIuQp5c6kc9REfbSN865mNDGEZ1BoWsxEyncWE4k
qWpddHYg6cuxIvnlmolvPwvCMa6fS3kv1sRCHFsVbdicYUmMFEDMiA73HiSXZS1d
H/t9X7EZlTsIp+iYBhQwDMUCAwEAAaN7MHkwCQYDVR0TBAIwADAsBglghkgBhvhC
AQ0EHxYdT3BlblNTTCBHZW5lcmF0ZWQgQ2VydGlmaWNhdGUwHQYDVR0OBBYEFL0e
p2J/p+0BLM+3uDEQvXP8qo1QMB8GA1UdIwQYMBaAFOjTibp7wBcKyvYVqyAP/uB4
QowzMA0GCSqGSIb3DQEBCwUAA4GBAAKHbLq/TNKlGt6EB/4eVgvNi2xzySJbvJdV
cj1miTpJXWLCcU/yUUI8LIoxjZBDVtAS29HOHFVg7oWPe6gesb9ZZaHYpH002ZXT
YpZZ0gaNhHOK2Zp6Uvr1f35BXnyeCP1YrLn0Qka+PyvfV4StOFDoNJVxMWpwFfEC
J1dXRRzn
-----END CERTIFICATE-----
